target datalayout = "e-m:e-p270:32:32-p271:32:32-p272:64:64-i64:64-i128:128-f80:128-n8:16:32:64-S128"
target triple = "x86_64-unknown-linux-gnu"

%"class.grpc_core::UniqueTypeName::Factory" = type { ptr }
%"class.grpc_core::UniqueTypeName" = type { %"class.std::basic_string_view" }
%"class.std::basic_string_view" = type { i64, ptr }

@_ZZN29grpc_fake_channel_credentials4TypeEvE8kFactory = internal global %"class.grpc_core::UniqueTypeName::Factory" zeroinitializer, align 8
@_ZGVZN29grpc_fake_channel_credentials4TypeEvE8kFactory = internal global i64 0, align 8
@.str = private unnamed_addr constant [5 x i8] c"Fake\00", align 1

; Function Attrs: mustprogress nounwind uwtable
define linkonce_odr void @_ZN9grpc_core14UniqueTypeNameC2ESt17basic_string_viewIcSt11char_traitsIcEE(ptr noundef nonnull align 8 dereferenceable(16) %this, i64 %name.coerce0, ptr %name.coerce1) unnamed_addr #5 comdat align 2 {
entry:
  %name = alloca %"class.std::basic_string_view", align 8
  %this.addr = alloca ptr, align 8
  %0 = getelementptr inbounds { i64, ptr }, ptr %name, i32 0, i32 0
  store i64 %name.coerce0, ptr %0, align 8
  %1 = getelementptr inbounds { i64, ptr }, ptr %name, i32 0, i32 1
  store ptr %name.coerce1, ptr %1, align 8
  store ptr %this, ptr %this.addr, align 8
  %this1 = load ptr, ptr %this.addr, align 8
  %name_ = getelementptr inbounds %"class.grpc_core::UniqueTypeName", ptr %this1, i32 0, i32 0
  call void @llvm.memcpy.p0.p0.i64(ptr align 8 %name_, ptr align 8 %name, i64 16, i1 false)
  ret void
}

; Function Attrs: noreturn nounwind uwtable
define linkonce_odr hidden void @__clang_call_terminate(ptr noundef %0) #9 comdat {
  %2 = call ptr @__cxa_begin_catch(ptr %0) #3
  call void @_ZSt9terminatev() #14
  unreachable
}

; Function Attrs: mustprogress nounwind uwtable
define linkonce_odr noundef i64 @_ZNSt11char_traitsIcE6lengthEPKc(ptr noundef %__s) #5 comdat align 2 {
entry:
  %__s.addr = alloca ptr, align 8
  store ptr %__s, ptr %__s.addr, align 8
  %0 = load ptr, ptr %__s.addr, align 8
  %call = call i64 @strlen(ptr noundef %0) #3
  ret i64 %call
}

; Function Attrs: mustprogress uwtable
define linkonce_odr void @_ZN9grpc_core14UniqueTypeName7Factory6CreateEv(ptr noalias sret(%"class.grpc_core::UniqueTypeName") align 8 %agg.result, ptr noundef nonnull align 8 dereferenceable(8) %this) #4 comdat align 2 {
entry:
  %result.ptr = alloca ptr, align 8
  %this.addr = alloca ptr, align 8
  %agg.tmp = alloca %"class.std::basic_string_view", align 8
  store ptr %agg.result, ptr %result.ptr, align 8
  store ptr %this, ptr %this.addr, align 8
  %this1 = load ptr, ptr %this.addr, align 8
  %name_ = getelementptr inbounds %"class.grpc_core::UniqueTypeName::Factory", ptr %this1, i32 0, i32 0
  %0 = load ptr, ptr %name_, align 8
  %call = call { i64, ptr } @_ZNKSt7__cxx1112basic_stringIcSt11char_traitsIcESaIcEEcvSt17basic_string_viewIcS2_EEv(ptr noundef nonnull align 8 dereferenceable(32) %0) #3
  %1 = getelementptr inbounds { i64, ptr }, ptr %agg.tmp, i32 0, i32 0
  %2 = extractvalue { i64, ptr } %call, 0
  store i64 %2, ptr %1, align 8
  %3 = getelementptr inbounds { i64, ptr }, ptr %agg.tmp, i32 0, i32 1
  %4 = extractvalue { i64, ptr } %call, 1
  store ptr %4, ptr %3, align 8
  %5 = getelementptr inbounds { i64, ptr }, ptr %agg.tmp, i32 0, i32 0
  %6 = load i64, ptr %5, align 8
  %7 = getelementptr inbounds { i64, ptr }, ptr %agg.tmp, i32 0, i32 1
  %8 = load ptr, ptr %7, align 8
  call void @_ZN9grpc_core14UniqueTypeNameC2ESt17basic_string_viewIcSt11char_traitsIcEE(ptr noundef nonnull align 8 dereferenceable(16) %agg.result, i64 %6, ptr %8)
  ret void
}

; Function Attrs: mustprogress nounwind uwtable
define linkonce_odr void @_ZNSt17basic_string_viewIcSt11char_traitsIcEEC2EPKc(ptr noundef nonnull align 8 dereferenceable(16) %this, ptr noundef nonnull %__str) unnamed_addr #5 comdat align 2 personality ptr @__gxx_personality_v0 {
entry:
  %this.addr = alloca ptr, align 8
  %__str.addr = alloca ptr, align 8
  store ptr %this, ptr %this.addr, align 8
  store ptr %__str, ptr %__str.addr, align 8
  %this1 = load ptr, ptr %this.addr, align 8
  %_M_len = getelementptr inbounds %"class.std::basic_string_view", ptr %this1, i32 0, i32 0
  %0 = load ptr, ptr %__str.addr, align 8
  %call = invoke noundef i64 @_ZNSt11char_traitsIcE6lengthEPKc(ptr noundef %0)
          to label %invoke.cont unwind label %terminate.lpad

invoke.cont:                                      ; preds = %entry
  store i64 %call, ptr %_M_len, align 8
  %_M_str = getelementptr inbounds %"class.std::basic_string_view", ptr %this1, i32 0, i32 1
  %1 = load ptr, ptr %__str.addr, align 8
  store ptr %1, ptr %_M_str, align 8
  ret void

terminate.lpad:                                   ; preds = %entry
  %2 = landingpad { ptr, i32 }
          catch ptr null
  %3 = extractvalue { ptr, i32 } %2, 0
  call void @__clang_call_terminate(ptr %3) #14
  unreachable
}

; Function Attrs: mustprogress uwtable
define void @_ZN29grpc_fake_channel_credentials4TypeEv(ptr noalias sret(%"class.grpc_core::UniqueTypeName") align 8 %agg.result) #4 align 2 personality ptr @__gxx_personality_v0 {
entry:
  %result.ptr = alloca ptr, align 8
  %agg.tmp = alloca %"class.std::basic_string_view", align 8
  %exn.slot = alloca ptr, align 8
  %ehselector.slot = alloca i32, align 4
  store ptr %agg.result, ptr %result.ptr, align 8
  %0 = load atomic i8, ptr @_ZGVZN29grpc_fake_channel_credentials4TypeEvE8kFactory acquire, align 8
  %guard.uninitialized = icmp eq i8 %0, 0
  br i1 %guard.uninitialized, label %init.check, label %init.end, !prof !4

init.check:                                       ; preds = %entry
  %1 = call i32 @__cxa_guard_acquire(ptr @_ZGVZN29grpc_fake_channel_credentials4TypeEvE8kFactory) #3
  %tobool = icmp ne i32 %1, 0
  br i1 %tobool, label %init, label %init.end

init:                                             ; preds = %init.check
  call void @_ZNSt17basic_string_viewIcSt11char_traitsIcEEC2EPKc(ptr noundef nonnull align 8 dereferenceable(16) %agg.tmp, ptr noundef @.str) #3
  %2 = getelementptr inbounds { i64, ptr }, ptr %agg.tmp, i32 0, i32 0
  %3 = load i64, ptr %2, align 8
  %4 = getelementptr inbounds { i64, ptr }, ptr %agg.tmp, i32 0, i32 1
  %5 = load ptr, ptr %4, align 8
  invoke void @_ZN9grpc_core14UniqueTypeName7FactoryC2ESt17basic_string_viewIcSt11char_traitsIcEE(ptr noundef nonnull align 8 dereferenceable(8) @_ZZN29grpc_fake_channel_credentials4TypeEvE8kFactory, i64 %3, ptr %5)
          to label %invoke.cont unwind label %lpad

invoke.cont:                                      ; preds = %init
  call void @__cxa_guard_release(ptr @_ZGVZN29grpc_fake_channel_credentials4TypeEvE8kFactory) #3
  br label %init.end

init.end:                                         ; preds = %invoke.cont, %init.check, %entry
  call void @_ZN9grpc_core14UniqueTypeName7Factory6CreateEv(ptr sret(%"class.grpc_core::UniqueTypeName") align 8 %agg.result, ptr noundef nonnull align 8 dereferenceable(8) @_ZZN29grpc_fake_channel_credentials4TypeEvE8kFactory)
  ret void

lpad:                                             ; preds = %init
  %6 = landingpad { ptr, i32 }
          cleanup
  %7 = extractvalue { ptr, i32 } %6, 0
  store ptr %7, ptr %exn.slot, align 8
  %8 = extractvalue { ptr, i32 } %6, 1
  store i32 %8, ptr %ehselector.slot, align 4
  call void @__cxa_guard_abort(ptr @_ZGVZN29grpc_fake_channel_credentials4TypeEvE8kFactory) #3
  br label %eh.resume

eh.resume:                                        ; preds = %lpad
  %exn = load ptr, ptr %exn.slot, align 8
  %sel = load i32, ptr %ehselector.slot, align 4
  %lpad.val = insertvalue { ptr, i32 } poison, ptr %exn, 0
  %lpad.val1 = insertvalue { ptr, i32 } %lpad.val, i32 %sel, 1
  resume { ptr, i32 } %lpad.val1
}